; Function Attrs: mustprogress noreturn uwtable
define noundef i64 @_ZN8proxygen2hq14HQControlCodec16addPriorityNodesERNS_9HTTPCodec13PriorityQueueERN5folly10IOBufQueueEh(ptr nocapture nonnull readnone align 16 %this, ptr nocapture nonnull readnone align 8 %0, ptr nocapture nonnull readnone align 8 %1, i8 zeroext %2) unnamed_addr #11 align 2 personality ptr @__gxx_personality_v0 {
entry:
  %ref.tmp4 = alloca %"class.google::LogMessageFatal", align 8
  call void @_ZN6google15LogMessageFatalC1EPKci(ptr noundef nonnull align 8 dereferenceable(96) %ref.tmp4, ptr noundef nonnull @.str, i32 noundef 306)
  %call = invoke noundef nonnull align 8 dereferenceable(8) ptr @_ZN6google10LogMessage6streamEv(ptr noundef nonnull align 8 dereferenceable(96) %ref.tmp4)
          to label %invoke.cont unwind label %lpad

invoke.cont:                                      ; preds = %entry
  %call6 = invoke noundef nonnull align 8 dereferenceable(8) ptr @_ZStlsISt11char_traitsIcEERSt13basic_ostreamIcT_ES5_PKc(ptr noundef nonnull align 8 dereferenceable(8) %call, ptr noundef nonnull @.str.13)
          to label %invoke.cont5 unwind label %lpad

invoke.cont5:                                     ; preds = %invoke.cont
  %call8 = invoke noundef nonnull align 8 dereferenceable(8) ptr @_ZStlsISt11char_traitsIcEERSt13basic_ostreamIcT_ES5_PKc(ptr noundef nonnull align 8 dereferenceable(8) %call6, ptr noundef nonnull @__func__._ZN8proxygen2hq14HQControlCodec16addPriorityNodesERNS_9HTTPCodec13PriorityQueueERN5folly10IOBufQueueEh)
          to label %invoke.cont7 unwind label %lpad

invoke.cont7:                                     ; preds = %invoke.cont5
  %call10 = invoke noundef nonnull align 8 dereferenceable(8) ptr @_ZStlsISt11char_traitsIcEERSt13basic_ostreamIcT_ES5_PKc(ptr noundef nonnull align 8 dereferenceable(8) %call8, ptr noundef nonnull @.str.23)
          to label %invoke.cont9 unwind label %lpad

invoke.cont9:                                     ; preds = %invoke.cont7
  call void @_ZN6google15LogMessageFatalD1Ev(ptr noundef nonnull align 8 dereferenceable(96) %ref.tmp4) #26
  unreachable

lpad:                                             ; preds = %invoke.cont7, %invoke.cont5, %invoke.cont, %entry
  %3 = landingpad { ptr, i32 }
          cleanup
  call void @_ZN6google15LogMessageFatalD1Ev(ptr noundef nonnull align 8 dereferenceable(96) %ref.tmp4) #26
  unreachable
}